; Function Attrs: nounwind uwtable
define noalias noundef ptr @Acec_CountRemap(ptr noundef %0, ptr noundef readonly captures(none) %1) local_unnamed_addr #2 {
  %3 = getelementptr i8, ptr %0, i64 24
  %.val = load i32, ptr %3, align 8
  %4 = tail call noalias dereferenceable_or_null(16) ptr @malloc(i64 noundef 16) #19
  %5 = add i32 %.val, -1
  %or.cond.i.i = icmp ult i32 %5, 15
  %spec.store.select.i.i = select i1 %or.cond.i.i, i32 16, i32 %.val
  %6 = getelementptr inbounds nuw i8, ptr %4, i64 4
  store i32 %spec.store.select.i.i, ptr %4, align 8
  %.not.i.i = icmp eq i32 %spec.store.select.i.i, 0
  br i1 %.not.i.i, label %Vec_IntAlloc.exit.thread.i, label %Vec_IntAlloc.exit.i

Vec_IntAlloc.exit.thread.i:                       ; preds = %2
  %7 = getelementptr inbounds nuw i8, ptr %4, i64 8
  store ptr null, ptr %7, align 8
  store i32 %.val, ptr %6, align 4
  br label %Vec_IntStartFull.exit

Vec_IntAlloc.exit.i:                              ; preds = %2
  %8 = sext i32 %spec.store.select.i.i to i64
  %9 = shl nsw i64 %8, 2
  %10 = tail call noalias ptr @malloc(i64 noundef %9) #19
  %11 = getelementptr inbounds nuw i8, ptr %4, i64 8
  store ptr %10, ptr %11, align 8
  store i32 %.val, ptr %6, align 4
  %.not.i = icmp eq ptr %10, null
  br i1 %.not.i, label %Vec_IntStartFull.exit, label %12

12:                                               ; preds = %Vec_IntAlloc.exit.i
  %13 = sext i32 %.val to i64
  %14 = shl nsw i64 %13, 2
  tail call void @llvm.memset.p0.i64(ptr nonnull align 4 %10, i8 -1, i64 %14, i1 false)
  br label %Vec_IntStartFull.exit

Vec_IntStartFull.exit:                            ; preds = %Vec_IntAlloc.exit.thread.i, %Vec_IntAlloc.exit.i, %12
  %.val21 = phi ptr [ null, %Vec_IntAlloc.exit.thread.i ], [ null, %Vec_IntAlloc.exit.i ], [ %10, %12 ]
  tail call void @Gia_ManSetPhase(ptr noundef nonnull %0) #20
  store i32 0, ptr %.val21, align 4
  %15 = load i32, ptr %3, align 8
  %16 = icmp sgt i32 %15, 0
  br i1 %16, label %.lr.ph, label %.critedge

.lr.ph:                                           ; preds = %Vec_IntStartFull.exit
  %17 = getelementptr i8, ptr %0, i64 32
  %18 = getelementptr i8, ptr %1, i64 32
  %.val20.pre = load ptr, ptr %17, align 8
  %.not = icmp eq ptr %.val20.pre, null
  %19 = zext nneg i32 %15 to i64
  br label %20

20:                                               ; preds = %.lr.ph, %39
  %indvars.iv = phi i64 [ 0, %.lr.ph ], [ %indvars.iv.next, %39 ]
  %21 = getelementptr inbounds nuw %struct.Gia_Obj_t_, ptr %.val20.pre, i64 %indvars.iv
  br i1 %.not, label %.critedge, label %22

22:                                               ; preds = %20
  %.val23 = load i64, ptr %21, align 4
  %23 = and i64 %.val23, 2147483648
  %.not.i.i25 = icmp ne i64 %23, 0
  %24 = and i64 %.val23, 536870911
  %25 = icmp eq i64 %24, 536870911
  %narrow.i.not.not.i.not27 = or i1 %.not.i.i25, %25
  %26 = and i64 %.val23, 2684354559
  %narrow.i3.i = icmp ne i64 %26, 2684354559
  %narrow.i.not = and i1 %narrow.i3.i, %narrow.i.not.not.i.not27
  br i1 %narrow.i.not, label %39, label %27

27:                                               ; preds = %22
  %28 = getelementptr inbounds nuw i8, ptr %21, i64 8
  %29 = load i32, ptr %28, align 4
  %30 = ashr i32 %29, 1
  %.val19 = load ptr, ptr %18, align 8
  %31 = sext i32 %30 to i64
  %32 = getelementptr inbounds %struct.Gia_Obj_t_, ptr %.val19, i64 %31, i32 1
  %33 = load i32, ptr %32, align 4
  %34 = lshr i64 %.val23, 63
  %35 = trunc nuw nsw i64 %34 to i32
  %36 = and i32 %33, -2
  %37 = or disjoint i32 %36, %35
  %38 = getelementptr inbounds nuw i32, ptr %.val21, i64 %indvars.iv
  store i32 %37, ptr %38, align 4
  br label %39

39:                                               ; preds = %27, %22
  %indvars.iv.next = add nuw nsw i64 %indvars.iv, 1
  %40 = icmp samesign ult i64 %indvars.iv.next, %19
  br i1 %40, label %20, label %.critedge, !llvm.loop !16

.critedge:                                        ; preds = %20, %39, %Vec_IntStartFull.exit
  ret ptr %4
}